target datalayout = "e-m:e-p270:32:32-p271:32:32-p272:64:64-i64:64-i128:128-f80:128-n8:16:32:64-S128"
target triple = "x86_64-pc-linux-gnu"

%struct.Gia_Man_t_ = type { ptr, ptr, i32, i32, i32, i32, ptr, ptr, i32, i32, i32, ptr, ptr, %struct.Vec_Int_t_, %struct.Vec_Int_t_, i32, i32, i32, %struct.Vec_Int_t_, ptr, ptr, ptr, i32, i32, i32, i32, ptr, ptr, ptr, ptr, ptr, i32, i32, ptr, i32, ptr, ptr, ptr, ptr, ptr, ptr, ptr, ptr, ptr, ptr, ptr, ptr, ptr, ptr, ptr, ptr, ptr, ptr, %struct.Vec_Int_t_, %struct.Vec_Int_t_, ptr, ptr, ptr, ptr, ptr, ptr, ptr, ptr, ptr, ptr, ptr, ptr, ptr, ptr, ptr, ptr, ptr, ptr, ptr, ptr, ptr, i32, float, float, ptr, ptr, i32, ptr, ptr, ptr, ptr, ptr, ptr, ptr, ptr, ptr, ptr, ptr, ptr, ptr, ptr, ptr, i64, i64, ptr, ptr, i32, i32, i32, i32, i32, i32, i32, i32, i32, i32, i32, i32, ptr, ptr, ptr, ptr, ptr, ptr, ptr, ptr, i32, i32, i32, ptr, i32, i32, ptr, ptr, ptr, ptr, ptr, ptr, i32, i32, ptr, %struct.Vec_Int_t_, %struct.Vec_Int_t_, %struct.Vec_Int_t_, ptr, ptr, ptr, i32, i32, i32, i32, ptr, ptr, ptr, ptr, ptr }
%struct.Vec_Int_t_ = type { i32, i32, ptr }
%struct.Gia_Obj_t_ = type <{ i64, i32 }>

; Function Attrs: inlinehint nounwind uwtable
define internal void @Vec_IntGrow(ptr noundef %0, i32 noundef %1) #2 {
  %3 = alloca ptr, align 8
  %4 = alloca i32, align 4
  store ptr %0, ptr %3, align 8, !tbaa !77
  store i32 %1, ptr %4, align 4, !tbaa !26
  %5 = load ptr, ptr %3, align 8, !tbaa !77
  %6 = getelementptr inbounds nuw %struct.Vec_Int_t_, ptr %5, i32 0, i32 0
  %7 = load i32, ptr %6, align 8, !tbaa !125
  %8 = load i32, ptr %4, align 4, !tbaa !26
  %9 = icmp sge i32 %7, %8
  br i1 %9, label %10, label %11

10:                                               ; preds = %2
  br label %36

11:                                               ; preds = %2
  %12 = load ptr, ptr %3, align 8, !tbaa !77
  %13 = getelementptr inbounds nuw %struct.Vec_Int_t_, ptr %12, i32 0, i32 2
  %14 = load ptr, ptr %13, align 8, !tbaa !112
  %15 = icmp ne ptr %14, null
  br i1 %15, label %16, label %24

16:                                               ; preds = %11
  %17 = load ptr, ptr %3, align 8, !tbaa !77
  %18 = getelementptr inbounds nuw %struct.Vec_Int_t_, ptr %17, i32 0, i32 2
  %19 = load ptr, ptr %18, align 8, !tbaa !112
  %20 = load i32, ptr %4, align 4, !tbaa !26
  %21 = sext i32 %20 to i64
  %22 = mul i64 4, %21
  %23 = call ptr @realloc(ptr noundef %19, i64 noundef %22) #17
  br label %29

24:                                               ; preds = %11
  %25 = load i32, ptr %4, align 4, !tbaa !26
  %26 = sext i32 %25 to i64
  %27 = mul i64 4, %26
  %28 = call noalias ptr @malloc(i64 noundef %27) #15
  br label %29

29:                                               ; preds = %24, %16
  %30 = phi ptr [ %23, %16 ], [ %28, %24 ]
  %31 = load ptr, ptr %3, align 8, !tbaa !77
  %32 = getelementptr inbounds nuw %struct.Vec_Int_t_, ptr %31, i32 0, i32 2
  store ptr %30, ptr %32, align 8, !tbaa !112
  %33 = load i32, ptr %4, align 4, !tbaa !26
  %34 = load ptr, ptr %3, align 8, !tbaa !77
  %35 = getelementptr inbounds nuw %struct.Vec_Int_t_, ptr %34, i32 0, i32 0
  store i32 %33, ptr %35, align 8, !tbaa !125
  br label %36

36:                                               ; preds = %29, %10
  ret void
}

; Function Attrs: inlinehint nounwind uwtable
define internal ptr @Gia_ObjFanin0(ptr noundef %0) #2 {
  %2 = alloca ptr, align 8
  store ptr %0, ptr %2, align 8, !tbaa !42
  %3 = load ptr, ptr %2, align 8, !tbaa !42
  %4 = load ptr, ptr %2, align 8, !tbaa !42
  %5 = load i64, ptr %4, align 4
  %6 = and i64 %5, 536870911
  %7 = trunc i64 %6 to i32
  %8 = sext i32 %7 to i64
  %9 = sub i64 0, %8
  %10 = getelementptr inbounds %struct.Gia_Obj_t_, ptr %3, i64 %9
  ret ptr %10
}

; Function Attrs: inlinehint nounwind uwtable
define internal void @Vec_IntPush(ptr noundef %0, i32 noundef %1) #2 {
  %3 = alloca ptr, align 8
  %4 = alloca i32, align 4
  store ptr %0, ptr %3, align 8, !tbaa !77
  store i32 %1, ptr %4, align 4, !tbaa !26
  %5 = load ptr, ptr %3, align 8, !tbaa !77
  %6 = getelementptr inbounds nuw %struct.Vec_Int_t_, ptr %5, i32 0, i32 1
  %7 = load i32, ptr %6, align 4, !tbaa !78
  %8 = load ptr, ptr %3, align 8, !tbaa !77
  %9 = getelementptr inbounds nuw %struct.Vec_Int_t_, ptr %8, i32 0, i32 0
  %10 = load i32, ptr %9, align 8, !tbaa !125
  %11 = icmp eq i32 %7, %10
  br i1 %11, label %12, label %26

12:                                               ; preds = %2
  %13 = load ptr, ptr %3, align 8, !tbaa !77
  %14 = getelementptr inbounds nuw %struct.Vec_Int_t_, ptr %13, i32 0, i32 0
  %15 = load i32, ptr %14, align 8, !tbaa !125
  %16 = icmp slt i32 %15, 16
  br i1 %16, label %17, label %19

17:                                               ; preds = %12
  %18 = load ptr, ptr %3, align 8, !tbaa !77
  call void @Vec_IntGrow(ptr noundef %18, i32 noundef 16)
  br label %25

19:                                               ; preds = %12
  %20 = load ptr, ptr %3, align 8, !tbaa !77
  %21 = load ptr, ptr %3, align 8, !tbaa !77
  %22 = getelementptr inbounds nuw %struct.Vec_Int_t_, ptr %21, i32 0, i32 0
  %23 = load i32, ptr %22, align 8, !tbaa !125
  %24 = mul nsw i32 2, %23
  call void @Vec_IntGrow(ptr noundef %20, i32 noundef %24)
  br label %25

25:                                               ; preds = %19, %17
  br label %26

26:                                               ; preds = %25, %2
  %27 = load i32, ptr %4, align 4, !tbaa !26
  %28 = load ptr, ptr %3, align 8, !tbaa !77
  %29 = getelementptr inbounds nuw %struct.Vec_Int_t_, ptr %28, i32 0, i32 2
  %30 = load ptr, ptr %29, align 8, !tbaa !112
  %31 = load ptr, ptr %3, align 8, !tbaa !77
  %32 = getelementptr inbounds nuw %struct.Vec_Int_t_, ptr %31, i32 0, i32 1
  %33 = load i32, ptr %32, align 4, !tbaa !78
  %34 = add nsw i32 %33, 1
  store i32 %34, ptr %32, align 4, !tbaa !78
  %35 = sext i32 %33 to i64
  %36 = getelementptr inbounds i32, ptr %30, i64 %35
  store i32 %27, ptr %36, align 4, !tbaa !26
  ret void
}

; Function Attrs: inlinehint nounwind uwtable
define internal i32 @Vec_IntSize(ptr noundef %0) #2 {
  %2 = alloca ptr, align 8
  store ptr %0, ptr %2, align 8, !tbaa !77
  %3 = load ptr, ptr %2, align 8, !tbaa !77
  %4 = getelementptr inbounds nuw %struct.Vec_Int_t_, ptr %3, i32 0, i32 1
  %5 = load i32, ptr %4, align 4, !tbaa !78
  ret i32 %5
}

; Function Attrs: inlinehint nounwind uwtable
define internal i32 @Abc_LitIsCompl(i32 noundef %0) #2 {
  %2 = alloca i32, align 4
  store i32 %0, ptr %2, align 4, !tbaa !26
  %3 = load i32, ptr %2, align 4, !tbaa !26
  %4 = and i32 %3, 1
  ret i32 %4
}

; Function Attrs: inlinehint nounwind uwtable
define internal i32 @Abc_Lit2Var(i32 noundef %0) #2 {
  %2 = alloca i32, align 4
  store i32 %0, ptr %2, align 4, !tbaa !26
  %3 = load i32, ptr %2, align 4, !tbaa !26
  %4 = ashr i32 %3, 1
  ret i32 %4
}

; Function Attrs: inlinehint nounwind uwtable
define internal i32 @Gia_ObjId(ptr noundef %0, ptr noundef %1) #2 {
  %3 = alloca ptr, align 8
  %4 = alloca ptr, align 8
  store ptr %0, ptr %3, align 8, !tbaa !3
  store ptr %1, ptr %4, align 8, !tbaa !42
  %5 = load ptr, ptr %4, align 8, !tbaa !42
  %6 = load ptr, ptr %3, align 8, !tbaa !3
  %7 = getelementptr inbounds nuw %struct.Gia_Man_t_, ptr %6, i32 0, i32 6
  %8 = load ptr, ptr %7, align 8, !tbaa !73
  %9 = ptrtoint ptr %5 to i64
  %10 = ptrtoint ptr %8 to i64
  %11 = sub i64 %9, %10
  %12 = sdiv exact i64 %11, 12
  %13 = trunc i64 %12 to i32
  ret i32 %13
}

; Function Attrs: inlinehint nounwind uwtable
define internal i32 @Gia_ManAppendCo(ptr noundef %0, i32 noundef %1) #2 {
  %3 = alloca ptr, align 8
  %4 = alloca i32, align 4
  %5 = alloca ptr, align 8
  store ptr %0, ptr %3, align 8, !tbaa !3
  store i32 %1, ptr %4, align 4, !tbaa !26
  call void @llvm.lifetime.start.p0(i64 8, ptr %5) #12
  %6 = load ptr, ptr %3, align 8, !tbaa !3
  %7 = call ptr @Gia_ManAppendObj(ptr noundef %6)
  store ptr %7, ptr %5, align 8, !tbaa !42
  %8 = load ptr, ptr %5, align 8, !tbaa !42
  %9 = load i64, ptr %8, align 4
  %10 = and i64 %9, -2147483649
  %11 = or i64 %10, 2147483648
  store i64 %11, ptr %8, align 4
  %12 = load ptr, ptr %3, align 8, !tbaa !3
  %13 = load ptr, ptr %5, align 8, !tbaa !42
  %14 = call i32 @Gia_ObjId(ptr noundef %12, ptr noundef %13)
  %15 = load i32, ptr %4, align 4, !tbaa !26
  %16 = call i32 @Abc_Lit2Var(i32 noundef %15)
  %17 = sub nsw i32 %14, %16
  %18 = load ptr, ptr %5, align 8, !tbaa !42
  %19 = zext i32 %17 to i64
  %20 = load i64, ptr %18, align 4
  %21 = and i64 %19, 536870911
  %22 = and i64 %20, -536870912
  %23 = or i64 %22, %21
  store i64 %23, ptr %18, align 4
  %24 = load i32, ptr %4, align 4, !tbaa !26
  %25 = call i32 @Abc_LitIsCompl(i32 noundef %24)
  %26 = load ptr, ptr %5, align 8, !tbaa !42
  %27 = zext i32 %25 to i64
  %28 = load i64, ptr %26, align 4
  %29 = and i64 %27, 1
  %30 = shl i64 %29, 29
  %31 = and i64 %28, -536870913
  %32 = or i64 %31, %30
  store i64 %32, ptr %26, align 4
  %33 = load ptr, ptr %3, align 8, !tbaa !3
  %34 = getelementptr inbounds nuw %struct.Gia_Man_t_, ptr %33, i32 0, i32 12
  %35 = load ptr, ptr %34, align 8, !tbaa !70
  %36 = call i32 @Vec_IntSize(ptr noundef %35)
  %37 = load ptr, ptr %5, align 8, !tbaa !42
  %38 = zext i32 %36 to i64
  %39 = load i64, ptr %37, align 4
  %40 = and i64 %38, 536870911
  %41 = shl i64 %40, 32
  %42 = and i64 %39, -2305843004918726657
  %43 = or i64 %42, %41
  store i64 %43, ptr %37, align 4
  %44 = load ptr, ptr %3, align 8, !tbaa !3
  %45 = getelementptr inbounds nuw %struct.Gia_Man_t_, ptr %44, i32 0, i32 12
  %46 = load ptr, ptr %45, align 8, !tbaa !70
  %47 = load ptr, ptr %3, align 8, !tbaa !3
  %48 = load ptr, ptr %5, align 8, !tbaa !42
  %49 = call i32 @Gia_ObjId(ptr noundef %47, ptr noundef %48)
  call void @Vec_IntPush(ptr noundef %46, i32 noundef %49)
  %50 = load ptr, ptr %3, align 8, !tbaa !3
  %51 = getelementptr inbounds nuw %struct.Gia_Man_t_, ptr %50, i32 0, i32 33
  %52 = load ptr, ptr %51, align 8, !tbaa !43
  %53 = icmp ne ptr %52, null
  br i1 %53, label %54, label %59

54:                                               ; preds = %2
  %55 = load ptr, ptr %3, align 8, !tbaa !3
  %56 = load ptr, ptr %5, align 8, !tbaa !42
  %57 = call ptr @Gia_ObjFanin0(ptr noundef %56)
  %58 = load ptr, ptr %5, align 8, !tbaa !42
  call void @Gia_ObjAddFanout(ptr noundef %55, ptr noundef %57, ptr noundef %58)
  br label %59

59:                                               ; preds = %54, %2
  %60 = load ptr, ptr %3, align 8, !tbaa !3
  %61 = load ptr, ptr %5, align 8, !tbaa !42
  %62 = call i32 @Gia_ObjId(ptr noundef %60, ptr noundef %61)
  %63 = shl i32 %62, 1
  call void @llvm.lifetime.end.p0(i64 8, ptr %5) #12
  ret i32 %63
}